(dp1
S'failed'
p2
(lp3
S'5'
aS'6'
asS'source_names'
p4
(lp5
S'.'
asS'ids'
p6
(dp7
I1
(S'/home/bdukai/Documents/Studies/MSc_Geomatics_TU_Delft/GEO1005_SDSS/GEO1005-StormManager/SpatialDecision/test/test_init.py'
S'SpatialDecision.test.test_init'
S'TestInit.test_read_init'
tp8
sI2
(S'/home/bdukai/Documents/Studies/MSc_Geomatics_TU_Delft/GEO1005_SDSS/GEO1005-StormManager/SpatialDecision/test/test_qgis_environment.py'
S'SpatialDecision.test.test_qgis_environment'
p9
S'QGISTest.test_projection'
tp10
sI3
(S'/home/bdukai/Documents/Studies/MSc_Geomatics_TU_Delft/GEO1005_SDSS/GEO1005-StormManager/SpatialDecision/test/test_qgis_environment.py'
g9
S'QGISTest.test_qgis_environment'
tp11
sI4
(S'/home/bdukai/Documents/Studies/MSc_Geomatics_TU_Delft/GEO1005_SDSS/GEO1005-StormManager/SpatialDecision/test/test_resources.py'
S'SpatialDecision.test.test_resources'
S'SpatialDecisionDialogTest.test_icon_png'
tp12
sI5
(S'/home/bdukai/Documents/Studies/MSc_Geomatics_TU_Delft/GEO1005_SDSS/GEO1005-StormManager/SpatialDecision/test/test_spatial_decision_dockwidget.py'
S'SpatialDecision.test.test_spatial_decision_dockwidget'
Ntp13
sI6
(S'/home/bdukai/Documents/Studies/MSc_Geomatics_TU_Delft/GEO1005_SDSS/GEO1005-StormManager/SpatialDecision/test/test_translations.py'
S'SpatialDecision.test.test_translations'
S'SafeTranslationsTest.test_qgis_translations'
tp14
ss.